target datalayout = "e-m:e-p270:32:32-p271:32:32-p272:64:64-i64:64-i128:128-f80:128-n8:16:32:64-S128"
target triple = "x86_64-pc-linux-gnu"

; Function Attrs: mustprogress nounwind uwtable
define internal noundef zeroext i8 @_ZL10_hb_ucd_scj(i32 noundef %0) #1 {
  %2 = alloca i32, align 4
  store i32 %0, ptr %2, align 4
  %3 = load i32, ptr %2, align 4
  %4 = icmp ult i32 %3, 918000
  br i1 %4, label %5, label %45

5:                                                ; preds = %1
  %6 = load i32, ptr %2, align 4
  %7 = lshr i32 %6, 3
  %8 = lshr i32 %7, 4
  %9 = lshr i32 %8, 4
  %10 = add i32 9884, %9
  %11 = zext i32 %10 to i64
  %12 = getelementptr inbounds [17884 x i8], ptr @_ZL10_hb_ucd_u8, i64 0, i64 %11
  %13 = load i8, ptr %12, align 1
  %14 = zext i8 %13 to i32
  %15 = shl i32 %14, 4
  %16 = load i32, ptr %2, align 4
  %17 = lshr i32 %16, 3
  %18 = lshr i32 %17, 4
  %19 = and i32 %18, 15
  %20 = add i32 %15, %19
  %21 = add i32 10334, %20
  %22 = zext i32 %21 to i64
  %23 = getelementptr inbounds [17884 x i8], ptr @_ZL10_hb_ucd_u8, i64 0, i64 %22
  %24 = load i8, ptr %23, align 1
  %25 = zext i8 %24 to i32
  %26 = shl i32 %25, 4
  %27 = load i32, ptr %2, align 4
  %28 = lshr i32 %27, 3
  %29 = and i32 %28, 15
  %30 = add i32 %26, %29
  %31 = add i32 2048, %30
  %32 = zext i32 %31 to i64
  %33 = getelementptr inbounds [9344 x i16], ptr @_ZL11_hb_ucd_u16, i64 0, i64 %32
  %34 = load i16, ptr %33, align 2
  %35 = zext i16 %34 to i32
  %36 = shl i32 %35, 3
  %37 = load i32, ptr %2, align 4
  %38 = and i32 %37, 7
  %39 = add i32 %36, %38
  %40 = add i32 11070, %39
  %41 = zext i32 %40 to i64
  %42 = getelementptr inbounds [17884 x i8], ptr @_ZL10_hb_ucd_u8, i64 0, i64 %41
  %43 = load i8, ptr %42, align 1
  %44 = zext i8 %43 to i32
  br label %46

45:                                               ; preds = %1
  br label %46

46:                                               ; preds = %45, %5
  %47 = phi i32 [ %44, %5 ], [ 2, %45 ]
  %48 = trunc i32 %47 to i8
  ret i8 %48
}

; Function Attrs: mustprogress uwtable
define internal noundef i32 @_ZL13hb_ucd_scriptP18hb_unicode_funcs_tjPv(ptr noundef %0, i32 noundef %1, ptr noundef %2) #0 {
  %4 = alloca ptr, align 8
  %5 = alloca i32, align 4
  %6 = alloca ptr, align 8
  store ptr %0, ptr %4, align 8
  store i32 %1, ptr %5, align 4
  store ptr %2, ptr %6, align 8
  %7 = load i32, ptr %5, align 4
  %8 = call noundef zeroext i8 @_ZL10_hb_ucd_scj(i32 noundef %7)
  %9 = zext i8 %8 to i64
  %10 = getelementptr inbounds [165 x i32], ptr @_ZL14_hb_ucd_sc_map, i64 0, i64 %9
  %11 = load i32, ptr %10, align 4
  ret i32 %11
}