; Function Attrs: mustprogress nofree norecurse nosync nounwind willreturn memory(none) uwtable
define internal noundef i32 @_ZL13hb_ucd_scriptP18hb_unicode_funcs_tjPv(ptr nocapture readnone %0, i32 noundef %1, ptr nocapture readnone %2) #2 {
  %4 = icmp ult i32 %1, 918000
  br i1 %4, label %5, label %_ZL10_hb_ucd_scj.exit

5:                                                ; preds = %3
  %6 = lshr i32 %1, 3
  %7 = lshr i32 %1, 7
  %8 = lshr i32 %1, 11
  %9 = add nuw nsw i32 %8, 9884
  %10 = zext nneg i32 %9 to i64
  %11 = getelementptr inbounds [17884 x i8], ptr @_ZL10_hb_ucd_u8, i64 0, i64 %10
  %12 = load i8, ptr %11, align 1
  %13 = zext i8 %12 to i32
  %14 = shl nuw nsw i32 %13, 4
  %15 = and i32 %7, 15
  %16 = add nuw nsw i32 %15, 10334
  %17 = add nuw nsw i32 %16, %14
  %18 = zext nneg i32 %17 to i64
  %19 = getelementptr inbounds [17884 x i8], ptr @_ZL10_hb_ucd_u8, i64 0, i64 %18
  %20 = load i8, ptr %19, align 1
  %21 = zext i8 %20 to i32
  %22 = shl nuw nsw i32 %21, 4
  %23 = and i32 %6, 15
  %24 = or disjoint i32 %23, 2048
  %25 = add nuw nsw i32 %24, %22
  %26 = zext nneg i32 %25 to i64
  %27 = getelementptr inbounds [9344 x i16], ptr @_ZL11_hb_ucd_u16, i64 0, i64 %26
  %28 = load i16, ptr %27, align 2
  %29 = zext i16 %28 to i32
  %30 = shl nuw nsw i32 %29, 3
  %31 = and i32 %1, 7
  %32 = add nuw nsw i32 %31, 11070
  %33 = add nuw nsw i32 %32, %30
  %34 = zext nneg i32 %33 to i64
  %35 = getelementptr inbounds [17884 x i8], ptr @_ZL10_hb_ucd_u8, i64 0, i64 %34
  %36 = load i8, ptr %35, align 1
  %37 = zext i8 %36 to i64
  br label %_ZL10_hb_ucd_scj.exit

_ZL10_hb_ucd_scj.exit:                            ; preds = %3, %5
  %38 = phi i64 [ %37, %5 ], [ 2, %3 ]
  %39 = getelementptr inbounds [165 x i32], ptr @_ZL14_hb_ucd_sc_map, i64 0, i64 %38
  %40 = load i32, ptr %39, align 4
  ret i32 %40
}